target datalayout = "e-m:e-p270:32:32-p271:32:32-p272:64:64-i64:64-i128:128-f80:128-n8:16:32:64-S128"
target triple = "x86_64-pc-linux-gnu"

%struct.b3IndexedMesh = type <{ i32, [4 x i8], ptr, i32, i32, ptr, i32, i32, i32, [4 x i8] }>
%class.b3TriangleIndexVertexArray = type { %class.b3StridingMeshInterface, %class.b3AlignedObjectArray, [2 x i32], i32, [4 x i8], %class.b3Vector3, %class.b3Vector3 }
%class.b3StridingMeshInterface = type { ptr, [8 x i8], %class.b3Vector3 }
%class.b3AlignedObjectArray = type <{ [4 x i8], i32, i32, [4 x i8], ptr, i8, [7 x i8] }>
%class.b3Vector3 = type { %union.anon }
%union.anon = type { [4 x float] }

@_ZTV23b3StridingMeshInterface = external unnamed_addr constant { [16 x ptr] }, align 8

; Function Attrs: inlinehint mustprogress nounwind uwtable
define linkonce_odr dso_local void @_ZN9b3Vector38setValueERKfS1_S1_(ptr noundef nonnull align 16 dereferenceable(16) %0, ptr noundef nonnull align 4 dereferenceable(4) %1, ptr noundef nonnull align 4 dereferenceable(4) %2, ptr noundef nonnull align 4 dereferenceable(4) %3) #5 comdat align 2 {
  %5 = alloca ptr, align 8
  %6 = alloca ptr, align 8
  %7 = alloca ptr, align 8
  %8 = alloca ptr, align 8
  store ptr %0, ptr %5, align 8, !tbaa !47
  store ptr %1, ptr %6, align 8, !tbaa !13
  store ptr %2, ptr %7, align 8, !tbaa !13
  store ptr %3, ptr %8, align 8, !tbaa !13
  %9 = load ptr, ptr %5, align 8
  %10 = load ptr, ptr %6, align 8, !tbaa !13
  %11 = load float, ptr %10, align 4, !tbaa !51
  %12 = getelementptr inbounds nuw %class.b3Vector3, ptr %9, i32 0, i32 0
  %13 = getelementptr inbounds [4 x float], ptr %12, i64 0, i64 0
  store float %11, ptr %13, align 16, !tbaa !50
  %14 = load ptr, ptr %7, align 8, !tbaa !13
  %15 = load float, ptr %14, align 4, !tbaa !51
  %16 = getelementptr inbounds nuw %class.b3Vector3, ptr %9, i32 0, i32 0
  %17 = getelementptr inbounds [4 x float], ptr %16, i64 0, i64 1
  store float %15, ptr %17, align 4, !tbaa !50
  %18 = load ptr, ptr %8, align 8, !tbaa !13
  %19 = load float, ptr %18, align 4, !tbaa !51
  %20 = getelementptr inbounds nuw %class.b3Vector3, ptr %9, i32 0, i32 0
  %21 = getelementptr inbounds [4 x float], ptr %20, i64 0, i64 2
  store float %19, ptr %21, align 8, !tbaa !50
  %22 = getelementptr inbounds nuw %class.b3Vector3, ptr %9, i32 0, i32 0
  %23 = getelementptr inbounds [4 x float], ptr %22, i64 0, i64 3
  store float 0.000000e+00, ptr %23, align 4, !tbaa !50
  ret void
}

; Function Attrs: inlinehint mustprogress nounwind uwtable
define linkonce_odr dso_local noundef nonnull align 16 dereferenceable(44) ptr @_ZN20b3AlignedObjectArrayI13b3IndexedMeshEixEi(ptr noundef nonnull align 8 dereferenceable(25) %0, i32 noundef %1) #5 comdat align 2 {
  %3 = alloca ptr, align 8
  %4 = alloca i32, align 4
  store ptr %0, ptr %3, align 8, !tbaa !36
  store i32 %1, ptr %4, align 4, !tbaa !9
  %5 = load ptr, ptr %3, align 8
  %6 = getelementptr inbounds nuw %class.b3AlignedObjectArray, ptr %5, i32 0, i32 4
  %7 = load ptr, ptr %6, align 8, !tbaa !46
  %8 = load i32, ptr %4, align 4, !tbaa !9
  %9 = sext i32 %8 to i64
  %10 = getelementptr inbounds %struct.b3IndexedMesh, ptr %7, i64 %9
  ret ptr %10
}

; Function Attrs: inlinehint mustprogress nounwind uwtable
define linkonce_odr dso_local noundef i32 @_ZNK20b3AlignedObjectArrayI13b3IndexedMeshE4sizeEv(ptr noundef nonnull align 8 dereferenceable(25) %0) #5 comdat align 2 {
  %2 = alloca ptr, align 8
  store ptr %0, ptr %2, align 8, !tbaa !36
  %3 = load ptr, ptr %2, align 8
  %4 = getelementptr inbounds nuw %class.b3AlignedObjectArray, ptr %3, i32 0, i32 1
  %5 = load i32, ptr %4, align 4, !tbaa !53
  ret i32 %5
}

; Function Attrs: inlinehint mustprogress nounwind uwtable
define linkonce_odr dso_local void @_ZN20b3AlignedObjectArrayI13b3IndexedMeshE4initEv(ptr noundef nonnull align 8 dereferenceable(25) %0) #5 comdat align 2 {
  %2 = alloca ptr, align 8
  store ptr %0, ptr %2, align 8, !tbaa !36
  %3 = load ptr, ptr %2, align 8
  %4 = getelementptr inbounds nuw %class.b3AlignedObjectArray, ptr %3, i32 0, i32 5
  store i8 1, ptr %4, align 8, !tbaa !56
  %5 = getelementptr inbounds nuw %class.b3AlignedObjectArray, ptr %3, i32 0, i32 4
  store ptr null, ptr %5, align 8, !tbaa !46
  %6 = getelementptr inbounds nuw %class.b3AlignedObjectArray, ptr %3, i32 0, i32 1
  store i32 0, ptr %6, align 4, !tbaa !53
  %7 = getelementptr inbounds nuw %class.b3AlignedObjectArray, ptr %3, i32 0, i32 2
  store i32 0, ptr %7, align 8, !tbaa !55
  ret void
}

; Function Attrs: mustprogress nounwind uwtable
define linkonce_odr dso_local void @_ZN18b3AlignedAllocatorI13b3IndexedMeshLj16EEC2Ev(ptr noundef nonnull align 1 dereferenceable(1) %0) unnamed_addr #3 comdat align 2 {
  %2 = alloca ptr, align 8
  store ptr %0, ptr %2, align 8, !tbaa !64
  ret void
}

; Function Attrs: inlinehint mustprogress uwtable
define linkonce_odr dso_local { <2 x float>, <2 x float> } @_Z13b3MakeVector3fff(float noundef %0, float noundef %1, float noundef %2) #8 comdat {
  %4 = alloca %class.b3Vector3, align 16
  %5 = alloca float, align 4
  %6 = alloca float, align 4
  %7 = alloca float, align 4
  store float %0, ptr %5, align 4, !tbaa !51
  store float %1, ptr %6, align 4, !tbaa !51
  store float %2, ptr %7, align 4, !tbaa !51
  call void @_ZN9b3Vector38setValueERKfS1_S1_(ptr noundef nonnull align 16 dereferenceable(16) %4, ptr noundef nonnull align 4 dereferenceable(4) %5, ptr noundef nonnull align 4 dereferenceable(4) %6, ptr noundef nonnull align 4 dereferenceable(4) %7)
  %8 = getelementptr inbounds nuw %class.b3Vector3, ptr %4, i32 0, i32 0
  %9 = getelementptr inbounds nuw %union.anon, ptr %8, i32 0, i32 0
  %10 = load { <2 x float>, <2 x float> }, ptr %9, align 16
  ret { <2 x float>, <2 x float> } %10
}

; Function Attrs: mustprogress uwtable
define linkonce_odr dso_local void @_ZN26b3TriangleIndexVertexArray14addIndexedMeshERK13b3IndexedMesh14PHY_ScalarType(ptr noundef nonnull align 16 dereferenceable(112) %0, ptr noundef nonnull align 16 dereferenceable(44) %1, i32 noundef %2) #0 comdat align 2 {
  %4 = alloca ptr, align 8
  %5 = alloca ptr, align 8
  %6 = alloca i32, align 4
  store ptr %0, ptr %4, align 8, !tbaa !4
  store ptr %1, ptr %5, align 8, !tbaa !38
  store i32 %2, ptr %6, align 4, !tbaa !41
  %7 = load ptr, ptr %4, align 8
  %8 = getelementptr inbounds nuw %class.b3TriangleIndexVertexArray, ptr %7, i32 0, i32 1
  %9 = load ptr, ptr %5, align 8, !tbaa !38
  call void @_ZN20b3AlignedObjectArrayI13b3IndexedMeshE9push_backERKS0_(ptr noundef nonnull align 8 dereferenceable(25) %8, ptr noundef nonnull align 16 dereferenceable(44) %9)
  %10 = load i32, ptr %6, align 4, !tbaa !41
  %11 = getelementptr inbounds nuw %class.b3TriangleIndexVertexArray, ptr %7, i32 0, i32 1
  %12 = getelementptr inbounds nuw %class.b3TriangleIndexVertexArray, ptr %7, i32 0, i32 1
  %13 = call noundef i32 @_ZNK20b3AlignedObjectArrayI13b3IndexedMeshE4sizeEv(ptr noundef nonnull align 8 dereferenceable(25) %12)
  %14 = sub nsw i32 %13, 1
  %15 = call noundef nonnull align 16 dereferenceable(44) ptr @_ZN20b3AlignedObjectArrayI13b3IndexedMeshEixEi(ptr noundef nonnull align 8 dereferenceable(25) %11, i32 noundef %14)
  %16 = getelementptr inbounds nuw %struct.b3IndexedMesh, ptr %15, i32 0, i32 7
  store i32 %10, ptr %16, align 4, !tbaa !39
  ret void
}

; Function Attrs: mustprogress nounwind uwtable
define linkonce_odr dso_local void @_ZN13b3IndexedMeshC2Ev(ptr noundef nonnull align 16 dereferenceable(44) %0) unnamed_addr #3 comdat align 2 {
  %2 = alloca ptr, align 8
  store ptr %0, ptr %2, align 8, !tbaa !38
  %3 = load ptr, ptr %2, align 8
  %4 = getelementptr inbounds nuw %struct.b3IndexedMesh, ptr %3, i32 0, i32 7
  store i32 2, ptr %4, align 4, !tbaa !39
  %5 = getelementptr inbounds nuw %struct.b3IndexedMesh, ptr %3, i32 0, i32 8
  store i32 0, ptr %5, align 8, !tbaa !40
  ret void
}

; Function Attrs: mustprogress uwtable
define linkonce_odr dso_local void @_ZN20b3AlignedObjectArrayI13b3IndexedMeshEC2Ev(ptr noundef nonnull align 8 dereferenceable(25) %0) unnamed_addr #0 comdat align 2 {
  %2 = alloca ptr, align 8
  store ptr %0, ptr %2, align 8, !tbaa !36
  %3 = load ptr, ptr %2, align 8
  call void @_ZN18b3AlignedAllocatorI13b3IndexedMeshLj16EEC2Ev(ptr noundef nonnull align 1 dereferenceable(1) %3)
  call void @_ZN20b3AlignedObjectArrayI13b3IndexedMeshE4initEv(ptr noundef nonnull align 8 dereferenceable(25) %3)
  ret void
}

; Function Attrs: mustprogress uwtable
define linkonce_odr dso_local void @_ZN23b3StridingMeshInterfaceC2Ev(ptr noundef nonnull align 16 dereferenceable(32) %0) unnamed_addr #1 comdat align 2 {
  %2 = alloca ptr, align 8
  store ptr %0, ptr %2, align 8, !tbaa !34
  %3 = load ptr, ptr %2, align 8
  store ptr getelementptr inbounds inrange(-16, 112) ({ [16 x ptr] }, ptr @_ZTV23b3StridingMeshInterface, i32 0, i32 0, i32 2), ptr %3, align 16, !tbaa !15
  %4 = getelementptr inbounds nuw %class.b3StridingMeshInterface, ptr %3, i32 0, i32 2
  %5 = call { <2 x float>, <2 x float> } @_Z13b3MakeVector3fff(float noundef 1.000000e+00, float noundef 1.000000e+00, float noundef 1.000000e+00)
  %6 = getelementptr inbounds nuw %class.b3Vector3, ptr %4, i32 0, i32 0
  %7 = getelementptr inbounds nuw %union.anon, ptr %6, i32 0, i32 0
  %8 = getelementptr inbounds nuw { <2 x float>, <2 x float> }, ptr %7, i32 0, i32 0
  %9 = extractvalue { <2 x float>, <2 x float> } %5, 0
  store <2 x float> %9, ptr %8, align 16
  %10 = getelementptr inbounds nuw { <2 x float>, <2 x float> }, ptr %7, i32 0, i32 1
  %11 = extractvalue { <2 x float>, <2 x float> } %5, 1
  store <2 x float> %11, ptr %10, align 8
  ret void
}

; Function Attrs: mustprogress uwtable
define dso_local void @_ZN26b3TriangleIndexVertexArrayC2EiPiiiPfi(ptr noundef nonnull align 16 dereferenceable(112) %0, i32 noundef %1, ptr noundef %2, i32 noundef %3, i32 noundef %4, ptr noundef %5, i32 noundef %6) unnamed_addr #0 align 2 personality ptr @__gxx_personality_v0 {
  %8 = alloca ptr, align 8
  %9 = alloca i32, align 4
  %10 = alloca ptr, align 8
  %11 = alloca i32, align 4
  %12 = alloca i32, align 4
  %13 = alloca ptr, align 8
  %14 = alloca i32, align 4
  %15 = alloca ptr, align 8
  %16 = alloca i32, align 4
  %17 = alloca %struct.b3IndexedMesh, align 16
  store ptr %0, ptr %8, align 8, !tbaa !4
  store i32 %1, ptr %9, align 4, !tbaa !9
  store ptr %2, ptr %10, align 8, !tbaa !11
  store i32 %3, ptr %11, align 4, !tbaa !9
  store i32 %4, ptr %12, align 4, !tbaa !9
  store ptr %5, ptr %13, align 8, !tbaa !13
  store i32 %6, ptr %14, align 4, !tbaa !9
  %18 = load ptr, ptr %8, align 8
  call void @_ZN23b3StridingMeshInterfaceC2Ev(ptr noundef nonnull align 16 dereferenceable(32) %18)
  store ptr getelementptr inbounds inrange(-16, 112) ({ [16 x ptr] }, ptr @_ZTV26b3TriangleIndexVertexArray, i32 0, i32 0, i32 2), ptr %18, align 16, !tbaa !15
  %19 = getelementptr inbounds nuw %class.b3TriangleIndexVertexArray, ptr %18, i32 0, i32 1
  invoke void @_ZN20b3AlignedObjectArrayI13b3IndexedMeshEC2Ev(ptr noundef nonnull align 8 dereferenceable(25) %19)
          to label %20 unwind label %36

20:                                               ; preds = %7
  %21 = getelementptr inbounds nuw %class.b3TriangleIndexVertexArray, ptr %18, i32 0, i32 3
  store i32 0, ptr %21, align 8, !tbaa !17
  call void @llvm.lifetime.start.p0(i64 48, ptr %17) #10
  invoke void @_ZN13b3IndexedMeshC2Ev(ptr noundef nonnull align 16 dereferenceable(44) %17)
          to label %22 unwind label %40

22:                                               ; preds = %20
  %23 = load i32, ptr %9, align 4, !tbaa !9
  %24 = getelementptr inbounds nuw %struct.b3IndexedMesh, ptr %17, i32 0, i32 0
  store i32 %23, ptr %24, align 16, !tbaa !25
  %25 = load ptr, ptr %10, align 8, !tbaa !11
  %26 = getelementptr inbounds nuw %struct.b3IndexedMesh, ptr %17, i32 0, i32 2
  store ptr %25, ptr %26, align 8, !tbaa !29
  %27 = load i32, ptr %11, align 4, !tbaa !9
  %28 = getelementptr inbounds nuw %struct.b3IndexedMesh, ptr %17, i32 0, i32 3
  store i32 %27, ptr %28, align 16, !tbaa !30
  %29 = load i32, ptr %12, align 4, !tbaa !9
  %30 = getelementptr inbounds nuw %struct.b3IndexedMesh, ptr %17, i32 0, i32 4
  store i32 %29, ptr %30, align 4, !tbaa !31
  %31 = load ptr, ptr %13, align 8, !tbaa !13
  %32 = getelementptr inbounds nuw %struct.b3IndexedMesh, ptr %17, i32 0, i32 5
  store ptr %31, ptr %32, align 8, !tbaa !32
  %33 = load i32, ptr %14, align 4, !tbaa !9
  %34 = getelementptr inbounds nuw %struct.b3IndexedMesh, ptr %17, i32 0, i32 6
  store i32 %33, ptr %34, align 16, !tbaa !33
  invoke void @_ZN26b3TriangleIndexVertexArray14addIndexedMeshERK13b3IndexedMesh14PHY_ScalarType(ptr noundef nonnull align 16 dereferenceable(112) %18, ptr noundef nonnull align 16 dereferenceable(44) %17, i32 noundef 2)
          to label %35 unwind label %40

35:                                               ; preds = %22
  call void @llvm.lifetime.end.p0(i64 48, ptr %17) #10
  ret void

36:                                               ; preds = %7
  %37 = landingpad { ptr, i32 }
          cleanup
  %38 = extractvalue { ptr, i32 } %37, 0
  store ptr %38, ptr %15, align 8
  %39 = extractvalue { ptr, i32 } %37, 1
  store i32 %39, ptr %16, align 4
  br label %44

40:                                               ; preds = %22, %20
  %41 = landingpad { ptr, i32 }
          cleanup
  %42 = extractvalue { ptr, i32 } %41, 0
  store ptr %42, ptr %15, align 8
  %43 = extractvalue { ptr, i32 } %41, 1
  store i32 %43, ptr %16, align 4
  call void @llvm.lifetime.end.p0(i64 48, ptr %17) #10
  call void @_ZN20b3AlignedObjectArrayI13b3IndexedMeshED2Ev(ptr noundef nonnull align 8 dereferenceable(25) %19) #10
  br label %44

44:                                               ; preds = %40, %36
  call void @_ZN23b3StridingMeshInterfaceD2Ev(ptr noundef nonnull align 16 dereferenceable(32) %18) #10
  br label %45

45:                                               ; preds = %44
  %46 = load ptr, ptr %15, align 8
  %47 = load i32, ptr %16, align 4
  %48 = insertvalue { ptr, i32 } poison, ptr %46, 0
  %49 = insertvalue { ptr, i32 } %48, i32 %47, 1
  resume { ptr, i32 } %49
}