; Function Attrs: mustprogress uwtable
define dso_local void @_ZN26b3TriangleIndexVertexArrayC2EiPiiiPfi(ptr noundef nonnull align 16 dereferenceable(112) initializes((0, 8), (16, 32), (36, 44), (48, 57), (72, 76)) %0, i32 noundef %1, ptr noundef %2, i32 noundef %3, i32 noundef %4, ptr noundef %5, i32 noundef %6) unnamed_addr #0 align 2 personality ptr @__gxx_personality_v0 {
  %8 = alloca %struct.b3IndexedMesh, align 16
  %9 = getelementptr inbounds nuw i8, ptr %0, i64 16
  store <2 x float> splat (float 1.000000e+00), ptr %9, align 16
  %10 = getelementptr inbounds nuw i8, ptr %0, i64 24
  store <2 x float> <float 1.000000e+00, float 0.000000e+00>, ptr %10, align 8
  store ptr getelementptr inbounds nuw inrange(-16, 112) (i8, ptr @_ZTV26b3TriangleIndexVertexArray, i64 16), ptr %0, align 16, !tbaa !4
  %11 = getelementptr inbounds nuw i8, ptr %0, i64 32
  %12 = getelementptr inbounds nuw i8, ptr %0, i64 56
  store i8 1, ptr %12, align 8, !tbaa !7
  %13 = getelementptr inbounds nuw i8, ptr %0, i64 48
  store ptr null, ptr %13, align 16, !tbaa !15
  %14 = getelementptr inbounds nuw i8, ptr %0, i64 36
  store i32 0, ptr %14, align 4, !tbaa !16
  %15 = getelementptr inbounds nuw i8, ptr %0, i64 40
  store i32 0, ptr %15, align 8, !tbaa !17
  %16 = getelementptr inbounds nuw i8, ptr %0, i64 72
  store i32 0, ptr %16, align 8, !tbaa !18
  call void @llvm.lifetime.start.p0(i64 48, ptr nonnull %8) #13
  %17 = getelementptr inbounds nuw i8, ptr %8, i64 36
  store i32 2, ptr %17, align 4, !tbaa !22
  %18 = getelementptr inbounds nuw i8, ptr %8, i64 40
  store i32 0, ptr %18, align 8, !tbaa !26
  store i32 %1, ptr %8, align 16, !tbaa !27
  %19 = getelementptr inbounds nuw i8, ptr %8, i64 8
  store ptr %2, ptr %19, align 8, !tbaa !28
  %20 = getelementptr inbounds nuw i8, ptr %8, i64 16
  store i32 %3, ptr %20, align 16, !tbaa !29
  %21 = getelementptr inbounds nuw i8, ptr %8, i64 20
  store i32 %4, ptr %21, align 4, !tbaa !30
  %22 = getelementptr inbounds nuw i8, ptr %8, i64 24
  store ptr %5, ptr %22, align 8, !tbaa !31
  %23 = getelementptr inbounds nuw i8, ptr %8, i64 32
  store i32 %6, ptr %23, align 16, !tbaa !32
  invoke void @_ZN20b3AlignedObjectArrayI13b3IndexedMeshE9push_backERKS0_(ptr noundef nonnull align 8 dereferenceable(25) %11, ptr noundef nonnull align 16 dereferenceable(44) %8)
          to label %24 unwind label %30

24:                                               ; preds = %7
  %25 = load i32, ptr %14, align 4, !tbaa !16
  %26 = load ptr, ptr %13, align 16, !tbaa !15
  %27 = sext i32 %25 to i64
  %28 = getelementptr %struct.b3IndexedMesh, ptr %26, i64 %27
  %29 = getelementptr i8, ptr %28, i64 -12
  store i32 2, ptr %29, align 4, !tbaa !22
  call void @llvm.lifetime.end.p0(i64 48, ptr nonnull %8) #13
  ret void

30:                                               ; preds = %7
  %31 = landingpad { ptr, i32 }
          cleanup
  call void @llvm.lifetime.end.p0(i64 48, ptr nonnull %8) #13
  call void @_ZN20b3AlignedObjectArrayI13b3IndexedMeshED2Ev(ptr noundef nonnull align 8 dereferenceable(25) %11) #13
  call void @_ZN23b3StridingMeshInterfaceD2Ev(ptr noundef nonnull align 16 dereferenceable(32) %0) #13
  resume { ptr, i32 } %31
}